; Function Attrs: mustprogress nofree norecurse nosync nounwind willreturn memory(argmem: read) uwtable
define internal noundef i32 @_ZL17utrans_enum_countP12UEnumerationP10UErrorCode(ptr noundef readonly captures(none) %0, ptr noundef readonly %1) #9 {
  %3 = icmp eq ptr %1, null
  br i1 %3, label %10, label %4

4:                                                ; preds = %2
  %5 = load i32, ptr %1, align 4, !tbaa !23
  %6 = icmp slt i32 %5, 1
  br i1 %6, label %7, label %10

7:                                                ; preds = %4
  %8 = getelementptr inbounds nuw i8, ptr %0, i64 60
  %9 = load i32, ptr %8, align 4, !tbaa !38
  br label %10

10:                                               ; preds = %2, %4, %7
  %.0 = phi i32 [ %9, %7 ], [ 0, %4 ], [ 0, %2 ]
  ret i32 %.0
}